target datalayout = "e-m:e-p270:32:32-p271:32:32-p272:64:64-i64:64-i128:128-f80:128-n8:16:32:64-S128"
target triple = "x86_64-pc-linux-gnu"

%struct._object = type { %union.anon, ptr }
%union.anon = type { i64 }
%struct.ProfilerObject = type { %struct._object, ptr, ptr, ptr, i32, ptr, double, i32, ptr }
%struct._ProfilerContext = type { i64, i64, ptr, ptr }

@.str.11 = private unnamed_addr constant [19 x i8] c"_pyreturn_callback\00", align 1
@_Py_NoneStruct = external global %struct._object, align 8

; Function Attrs: nounwind uwtable
define internal ptr @getEntry(ptr noundef %0, ptr noundef %1) #0 {
  %3 = alloca ptr, align 8
  %4 = alloca ptr, align 8
  store ptr %0, ptr %3, align 8, !tbaa !24
  store ptr %1, ptr %4, align 8, !tbaa !24
  %5 = load ptr, ptr %3, align 8, !tbaa !24
  %6 = getelementptr inbounds nuw %struct.ProfilerObject, ptr %5, i32 0, i32 1
  %7 = load ptr, ptr %4, align 8, !tbaa !24
  %8 = call ptr @RotatingTree_Get(ptr noundef %6, ptr noundef %7)
  ret ptr %8
}

; Function Attrs: nounwind uwtable
define internal void @ptrace_leave_call(ptr noundef %0, ptr noundef %1) #0 {
  %3 = alloca ptr, align 8
  %4 = alloca ptr, align 8
  %5 = alloca ptr, align 8
  %6 = alloca ptr, align 8
  %7 = alloca ptr, align 8
  %8 = alloca i32, align 4
  store ptr %0, ptr %3, align 8, !tbaa !3
  store ptr %1, ptr %4, align 8, !tbaa !24
  call void @llvm.lifetime.start.p0(i64 8, ptr %5) #6
  %9 = load ptr, ptr %3, align 8, !tbaa !3
  store ptr %9, ptr %5, align 8, !tbaa !24
  call void @llvm.lifetime.start.p0(i64 8, ptr %6) #6
  call void @llvm.lifetime.start.p0(i64 8, ptr %7) #6
  %10 = load ptr, ptr %5, align 8, !tbaa !24
  %11 = getelementptr inbounds nuw %struct.ProfilerObject, ptr %10, i32 0, i32 2
  %12 = load ptr, ptr %11, align 8, !tbaa !92
  store ptr %12, ptr %7, align 8, !tbaa !93
  %13 = load ptr, ptr %7, align 8, !tbaa !93
  %14 = icmp eq ptr %13, null
  br i1 %14, label %15, label %16

15:                                               ; preds = %2
  store i32 1, ptr %8, align 4
  br label %41

16:                                               ; preds = %2
  %17 = load ptr, ptr %5, align 8, !tbaa !24
  %18 = load ptr, ptr %4, align 8, !tbaa !24
  %19 = call ptr @getEntry(ptr noundef %17, ptr noundef %18)
  store ptr %19, ptr %6, align 8, !tbaa !66
  %20 = load ptr, ptr %6, align 8, !tbaa !66
  %21 = icmp ne ptr %20, null
  br i1 %21, label %22, label %26

22:                                               ; preds = %16
  %23 = load ptr, ptr %5, align 8, !tbaa !24
  %24 = load ptr, ptr %7, align 8, !tbaa !93
  %25 = load ptr, ptr %6, align 8, !tbaa !66
  call void @Stop(ptr noundef %23, ptr noundef %24, ptr noundef %25)
  br label %32

26:                                               ; preds = %16
  %27 = load ptr, ptr %7, align 8, !tbaa !93
  %28 = getelementptr inbounds nuw %struct._ProfilerContext, ptr %27, i32 0, i32 2
  %29 = load ptr, ptr %28, align 8, !tbaa !96
  %30 = load ptr, ptr %5, align 8, !tbaa !24
  %31 = getelementptr inbounds nuw %struct.ProfilerObject, ptr %30, i32 0, i32 2
  store ptr %29, ptr %31, align 8, !tbaa !92
  br label %32

32:                                               ; preds = %26, %22
  %33 = load ptr, ptr %5, align 8, !tbaa !24
  %34 = getelementptr inbounds nuw %struct.ProfilerObject, ptr %33, i32 0, i32 3
  %35 = load ptr, ptr %34, align 8, !tbaa !104
  %36 = load ptr, ptr %7, align 8, !tbaa !93
  %37 = getelementptr inbounds nuw %struct._ProfilerContext, ptr %36, i32 0, i32 2
  store ptr %35, ptr %37, align 8, !tbaa !96
  %38 = load ptr, ptr %7, align 8, !tbaa !93
  %39 = load ptr, ptr %5, align 8, !tbaa !24
  %40 = getelementptr inbounds nuw %struct.ProfilerObject, ptr %39, i32 0, i32 3
  store ptr %38, ptr %40, align 8, !tbaa !104
  store i32 0, ptr %8, align 4
  br label %41

41:                                               ; preds = %32, %15
  call void @llvm.lifetime.end.p0(i64 8, ptr %7) #6
  call void @llvm.lifetime.end.p0(i64 8, ptr %6) #6
  call void @llvm.lifetime.end.p0(i64 8, ptr %5) #6
  %42 = load i32, ptr %8, align 4
  switch i32 %42, label %44 [
    i32 0, label %43
    i32 1, label %43
  ]

43:                                               ; preds = %41, %41
  ret void

44:                                               ; preds = %41
  unreachable
}

; Function Attrs: nounwind uwtable
define internal ptr @_lsprof_Profiler__pyreturn_callback_impl(ptr noundef %0, ptr noundef %1, ptr noundef %2, ptr noundef %3) #0 {
  %5 = alloca ptr, align 8
  %6 = alloca ptr, align 8
  %7 = alloca ptr, align 8
  %8 = alloca ptr, align 8
  store ptr %0, ptr %5, align 8, !tbaa !24
  store ptr %1, ptr %6, align 8, !tbaa !3
  store ptr %2, ptr %7, align 8, !tbaa !3
  store ptr %3, ptr %8, align 8, !tbaa !3
  %9 = load ptr, ptr %5, align 8, !tbaa !24
  %10 = load ptr, ptr %6, align 8, !tbaa !3
  call void @ptrace_leave_call(ptr noundef %9, ptr noundef %10)
  ret ptr @_Py_NoneStruct
}

; Function Attrs: nounwind uwtable
define internal ptr @_lsprof_Profiler__pyreturn_callback(ptr noundef %0, ptr noundef %1, i64 noundef %2) #0 {
  %4 = alloca ptr, align 8
  %5 = alloca ptr, align 8
  %6 = alloca i64, align 8
  %7 = alloca ptr, align 8
  %8 = alloca ptr, align 8
  %9 = alloca ptr, align 8
  %10 = alloca ptr, align 8
  store ptr %0, ptr %4, align 8, !tbaa !3
  store ptr %1, ptr %5, align 8, !tbaa !42
  store i64 %2, ptr %6, align 8, !tbaa !40
  call void @llvm.lifetime.start.p0(i64 8, ptr %7) #6
  store ptr null, ptr %7, align 8, !tbaa !3
  call void @llvm.lifetime.start.p0(i64 8, ptr %8) #6
  call void @llvm.lifetime.start.p0(i64 8, ptr %9) #6
  call void @llvm.lifetime.start.p0(i64 8, ptr %10) #6
  %11 = load i64, ptr %6, align 8, !tbaa !40
  %12 = icmp sle i64 3, %11
  br i1 %12, label %13, label %16

13:                                               ; preds = %3
  %14 = load i64, ptr %6, align 8, !tbaa !40
  %15 = icmp sle i64 %14, 3
  br i1 %15, label %21, label %16

16:                                               ; preds = %13, %3
  %17 = load i64, ptr %6, align 8, !tbaa !40
  %18 = call i32 @_PyArg_CheckPositional(ptr noundef @.str.11, i64 noundef %17, i64 noundef 3, i64 noundef 3)
  %19 = icmp ne i32 %18, 0
  br i1 %19, label %21, label %20

20:                                               ; preds = %16
  br label %36

21:                                               ; preds = %16, %13
  %22 = load ptr, ptr %5, align 8, !tbaa !42
  %23 = getelementptr ptr, ptr %22, i64 0
  %24 = load ptr, ptr %23, align 8, !tbaa !3
  store ptr %24, ptr %8, align 8, !tbaa !3
  %25 = load ptr, ptr %5, align 8, !tbaa !42
  %26 = getelementptr ptr, ptr %25, i64 1
  %27 = load ptr, ptr %26, align 8, !tbaa !3
  store ptr %27, ptr %9, align 8, !tbaa !3
  %28 = load ptr, ptr %5, align 8, !tbaa !42
  %29 = getelementptr ptr, ptr %28, i64 2
  %30 = load ptr, ptr %29, align 8, !tbaa !3
  store ptr %30, ptr %10, align 8, !tbaa !3
  %31 = load ptr, ptr %4, align 8, !tbaa !3
  %32 = load ptr, ptr %8, align 8, !tbaa !3
  %33 = load ptr, ptr %9, align 8, !tbaa !3
  %34 = load ptr, ptr %10, align 8, !tbaa !3
  %35 = call ptr @_lsprof_Profiler__pyreturn_callback_impl(ptr noundef %31, ptr noundef %32, ptr noundef %33, ptr noundef %34)
  store ptr %35, ptr %7, align 8, !tbaa !3
  br label %36

36:                                               ; preds = %21, %20
  %37 = load ptr, ptr %7, align 8, !tbaa !3
  call void @llvm.lifetime.end.p0(i64 8, ptr %10) #6
  call void @llvm.lifetime.end.p0(i64 8, ptr %9) #6
  call void @llvm.lifetime.end.p0(i64 8, ptr %8) #6
  call void @llvm.lifetime.end.p0(i64 8, ptr %7) #6
  ret ptr %37
}