; Function Attrs: nounwind uwtable
define internal noundef ptr @_lsprof_Profiler__pyreturn_callback(ptr noundef %0, ptr noundef readonly captures(none) %1, i64 noundef %2) #0 {
  %or.cond = icmp eq i64 %2, 3
  br i1 %or.cond, label %6, label %4

4:                                                ; preds = %3
  %5 = tail call i32 @_PyArg_CheckPositional(ptr noundef nonnull @.str.11, i64 noundef %2, i64 noundef 3, i64 noundef 3) #5
  %.not = icmp eq i32 %5, 0
  br i1 %.not, label %_lsprof_Profiler__pyreturn_callback_impl.exit, label %6

6:                                                ; preds = %3, %4
  %7 = getelementptr inbounds nuw i8, ptr %0, i64 24
  %8 = load ptr, ptr %7, align 8, !tbaa !31
  %9 = icmp eq ptr %8, null
  br i1 %9, label %_lsprof_Profiler__pyreturn_callback_impl.exit, label %10

10:                                               ; preds = %6
  %11 = load ptr, ptr %1, align 8, !tbaa !48
  %12 = getelementptr inbounds nuw i8, ptr %0, i64 16
  %13 = tail call ptr @RotatingTree_Get(ptr noundef nonnull %12, ptr noundef %11) #5
  %.not.i.i = icmp eq ptr %13, null
  br i1 %.not.i.i, label %15, label %14

14:                                               ; preds = %10
  tail call fastcc void @Stop(ptr noundef nonnull %0, ptr noundef %8, ptr noundef %13)
  br label %18

15:                                               ; preds = %10
  %16 = getelementptr inbounds nuw i8, ptr %8, i64 16
  %17 = load ptr, ptr %16, align 8, !tbaa !35
  store ptr %17, ptr %7, align 8, !tbaa !31
  br label %18

18:                                               ; preds = %15, %14
  %19 = getelementptr inbounds nuw i8, ptr %0, i64 32
  %20 = load ptr, ptr %19, align 8, !tbaa !39
  %21 = getelementptr inbounds nuw i8, ptr %8, i64 16
  store ptr %20, ptr %21, align 8, !tbaa !35
  store ptr %8, ptr %19, align 8, !tbaa !39
  br label %_lsprof_Profiler__pyreturn_callback_impl.exit

_lsprof_Profiler__pyreturn_callback_impl.exit:    ; preds = %18, %6, %4
  %.0 = phi ptr [ null, %4 ], [ @_Py_NoneStruct, %6 ], [ @_Py_NoneStruct, %18 ]
  ret ptr %.0
}